; Function Attrs: mustprogress uwtable
define hidden noundef zeroext i1 @_ZN6google8protobuf25EncodedDescriptorDatabase3AddEPKvi(ptr noundef nonnull readonly align 8 captures(none) dereferenceable(40) %0, ptr noundef %1, i32 noundef %2) local_unnamed_addr #6 align 2 personality ptr @__gxx_personality_v0 {
  %4 = alloca %"class.google::protobuf::FileDescriptorProto", align 8
  %5 = alloca %"class.google::protobuf::internal::LogMessage", align 8
  %6 = alloca %"class.google::protobuf::internal::LogFinisher", align 1
  call void @llvm.lifetime.start.p0(i64 216, ptr nonnull %4) #26
  call void @_ZN6google8protobuf19FileDescriptorProtoC2EPNS0_5ArenaEb(ptr noundef nonnull align 8 dereferenceable(216) %4, ptr noundef null, i1 noundef zeroext false)
  %7 = invoke noundef zeroext i1 @_ZN6google8protobuf11MessageLite14ParseFromArrayEPKvi(ptr noundef nonnull align 8 dereferenceable(16) %4, ptr noundef %1, i32 noundef %2)
          to label %8 unwind label %13

8:                                                ; preds = %3
  br i1 %7, label %9, label %15

9:                                                ; preds = %8
  %10 = getelementptr inbounds nuw i8, ptr %0, i64 8
  %11 = load ptr, ptr %10, align 8, !tbaa !81
  %12 = invoke noundef zeroext i1 @_ZN6google8protobuf25EncodedDescriptorDatabase15DescriptorIndex7AddFileINS0_19FileDescriptorProtoEEEbRKT_St4pairIPKviE(ptr noundef nonnull align 8 dereferenceable(240) %11, ptr noundef nonnull align 8 dereferenceable(216) %4, ptr %1, i32 %2)
          to label %28 unwind label %13

13:                                               ; preds = %9, %3
  %14 = landingpad { ptr, i32 }
          cleanup
  br label %29

15:                                               ; preds = %8
  call void @llvm.lifetime.start.p0(i64 56, ptr nonnull %5) #26
  invoke void @_ZN6google8protobuf8internal10LogMessageC1ENS0_8LogLevelEPKci(ptr noundef nonnull align 8 dereferenceable(56) %5, i32 noundef 2, ptr noundef nonnull @.str, i32 noundef 559)
          to label %16 unwind label %20

16:                                               ; preds = %15
  %17 = invoke noundef nonnull align 8 dereferenceable(56) ptr @_ZN6google8protobuf8internal10LogMessagelsEPKc(ptr noundef nonnull align 8 dereferenceable(56) %5, ptr noundef nonnull @.str.1)
          to label %18 unwind label %22

18:                                               ; preds = %16
  call void @llvm.lifetime.start.p0(i64 1, ptr nonnull %6) #26
  invoke void @_ZN6google8protobuf8internal11LogFinisheraSERNS1_10LogMessageE(ptr noundef nonnull align 1 dereferenceable(1) %6, ptr noundef nonnull align 8 dereferenceable(56) %17)
          to label %19 unwind label %24

19:                                               ; preds = %18
  call void @llvm.lifetime.end.p0(i64 1, ptr nonnull %6) #26
  call void @_ZN6google8protobuf8internal10LogMessageD1Ev(ptr noundef nonnull align 8 dereferenceable(56) %5) #26
  call void @llvm.lifetime.end.p0(i64 56, ptr nonnull %5) #26
  br label %28

20:                                               ; preds = %15
  %21 = landingpad { ptr, i32 }
          cleanup
  br label %27

22:                                               ; preds = %16
  %23 = landingpad { ptr, i32 }
          cleanup
  br label %26

24:                                               ; preds = %18
  %25 = landingpad { ptr, i32 }
          cleanup
  call void @llvm.lifetime.end.p0(i64 1, ptr nonnull %6) #26
  br label %26

26:                                               ; preds = %24, %22
  %.pn = phi { ptr, i32 } [ %25, %24 ], [ %23, %22 ]
  call void @_ZN6google8protobuf8internal10LogMessageD1Ev(ptr noundef nonnull align 8 dereferenceable(56) %5) #26
  br label %27

27:                                               ; preds = %26, %20
  %.pn.pn = phi { ptr, i32 } [ %.pn, %26 ], [ %21, %20 ]
  call void @llvm.lifetime.end.p0(i64 56, ptr nonnull %5) #26
  br label %29

28:                                               ; preds = %9, %19
  %.0 = phi i1 [ false, %19 ], [ %12, %9 ]
  call void @_ZN6google8protobuf19FileDescriptorProtoD1Ev(ptr noundef nonnull align 8 dereferenceable(216) %4) #26
  call void @llvm.lifetime.end.p0(i64 216, ptr nonnull %4) #26
  ret i1 %.0

29:                                               ; preds = %27, %13
  %.pn11 = phi { ptr, i32 } [ %14, %13 ], [ %.pn.pn, %27 ]
  call void @_ZN6google8protobuf19FileDescriptorProtoD1Ev(ptr noundef nonnull align 8 dereferenceable(216) %4) #26
  call void @llvm.lifetime.end.p0(i64 216, ptr nonnull %4) #26
  resume { ptr, i32 } %.pn11
}